target datalayout = "e-m:e-p270:32:32-p271:32:32-p272:64:64-i64:64-i128:128-f80:128-n8:16:32:64-S128"
target triple = "x86_64-pc-linux-gnu"

%struct.llhttp__internal_s = type { i32, ptr, ptr, i32, ptr, ptr, ptr, ptr, i64, i8, i8, i8, i8, i8, i16, i8, i8, i16, i16, i8, ptr }
%struct.llhttp_settings_s = type { ptr, ptr, ptr, ptr, ptr, ptr, ptr, ptr, ptr, ptr, ptr, ptr, ptr, ptr, ptr, ptr, ptr, ptr, ptr, ptr, ptr, ptr, ptr }

; Function Attrs: nounwind uwtable
define i32 @llhttp__on_chunk_extension_name_complete(ptr noundef %0, ptr noundef %1, ptr noundef %2) #0 {
  %4 = alloca ptr, align 8
  %5 = alloca ptr, align 8
  %6 = alloca ptr, align 8
  %7 = alloca i32, align 4
  %8 = alloca ptr, align 8
  %9 = alloca i32, align 4
  store ptr %0, ptr %4, align 8, !tbaa !3
  store ptr %1, ptr %5, align 8, !tbaa !27
  store ptr %2, ptr %6, align 8, !tbaa !27
  call void @llvm.lifetime.start.p0(i64 4, ptr %7) #6
  br label %10

10:                                               ; preds = %3
  call void @llvm.lifetime.start.p0(i64 8, ptr %8) #6
  %11 = load ptr, ptr %4, align 8, !tbaa !3
  %12 = getelementptr inbounds nuw %struct.llhttp__internal_s, ptr %11, i32 0, i32 20
  %13 = load ptr, ptr %12, align 8, !tbaa !17
  store ptr %13, ptr %8, align 8, !tbaa !10
  %14 = load ptr, ptr %8, align 8, !tbaa !10
  %15 = icmp eq ptr %14, null
  br i1 %15, label %21, label %16

16:                                               ; preds = %10
  %17 = load ptr, ptr %8, align 8, !tbaa !10
  %18 = getelementptr inbounds nuw %struct.llhttp_settings_s, ptr %17, i32 0, i32 18
  %19 = load ptr, ptr %18, align 8, !tbaa !52
  %20 = icmp eq ptr %19, null
  br i1 %20, label %21, label %22

21:                                               ; preds = %16, %10
  store i32 0, ptr %7, align 4, !tbaa !8
  store i32 2, ptr %9, align 4
  br label %28

22:                                               ; preds = %16
  %23 = load ptr, ptr %8, align 8, !tbaa !10
  %24 = getelementptr inbounds nuw %struct.llhttp_settings_s, ptr %23, i32 0, i32 18
  %25 = load ptr, ptr %24, align 8, !tbaa !52
  %26 = load ptr, ptr %4, align 8, !tbaa !3
  %27 = call i32 %25(ptr noundef %26)
  store i32 %27, ptr %7, align 4, !tbaa !8
  store i32 0, ptr %9, align 4
  br label %28

28:                                               ; preds = %22, %21
  call void @llvm.lifetime.end.p0(i64 8, ptr %8) #6
  %29 = load i32, ptr %9, align 4
  switch i32 %29, label %34 [
    i32 0, label %30
    i32 2, label %32
  ]

30:                                               ; preds = %28
  br label %31

31:                                               ; preds = %30
  br label %32

32:                                               ; preds = %31, %28
  %33 = load i32, ptr %7, align 4, !tbaa !8
  store i32 1, ptr %9, align 4
  call void @llvm.lifetime.end.p0(i64 4, ptr %7) #6
  ret i32 %33

34:                                               ; preds = %28
  unreachable
}